; Function Attrs: mustprogress nounwind uwtable
define void @_ZN6casadi10RootfinderD2Ev(ptr noundef nonnull align 8 dereferenceable(1600) initializes((0, 8), (1528, 1536)) %0) unnamed_addr #5 align 2 personality ptr @__gxx_personality_v0 {
  store ptr getelementptr inbounds nuw inrange(-16, 976) (i8, ptr @_ZTVN6casadi10RootfinderE, i64 16), ptr %0, align 8, !tbaa !45
  %2 = getelementptr inbounds nuw i8, ptr %0, i64 1528
  store ptr getelementptr inbounds nuw inrange(-16, 8) (i8, ptr @_ZTVN6casadi10RootfinderE, i64 1008), ptr %2, align 8, !tbaa !45
  %3 = getelementptr inbounds nuw i8, ptr %0, i64 1560
  %4 = load ptr, ptr %3, align 8, !tbaa !143
  %.not.i.i.i = icmp eq ptr %4, null
  br i1 %.not.i.i.i, label %_ZNSt6vectorIxSaIxEED2Ev.exit, label %5

5:                                                ; preds = %1
  %6 = getelementptr inbounds nuw i8, ptr %0, i64 1576
  %7 = load ptr, ptr %6, align 8, !tbaa !146
  %8 = ptrtoint ptr %7 to i64
  %9 = ptrtoint ptr %4 to i64
  %10 = sub i64 %8, %9
  tail call void @_ZdlPvm(ptr noundef nonnull %4, i64 noundef %10) #31
  br label %_ZNSt6vectorIxSaIxEED2Ev.exit

_ZNSt6vectorIxSaIxEED2Ev.exit:                    ; preds = %1, %5
  %11 = getelementptr inbounds nuw i8, ptr %0, i64 1552
  invoke void @_ZN6casadi13GenericSharedINS_12SharedObjectENS_20SharedObjectInternalEE10count_downEv(ptr noundef nonnull align 8 dereferenceable(8) %11)
          to label %_ZN6casadi13GenericSharedINS_12SharedObjectENS_20SharedObjectInternalEED2Ev.exit unwind label %12

12:                                               ; preds = %_ZNSt6vectorIxSaIxEED2Ev.exit
  %13 = landingpad { ptr, i32 }
          catch ptr null
  %14 = extractvalue { ptr, i32 } %13, 0
  tail call void @__clang_call_terminate(ptr %14) #33
  unreachable

_ZN6casadi13GenericSharedINS_12SharedObjectENS_20SharedObjectInternalEED2Ev.exit: ; preds = %_ZNSt6vectorIxSaIxEED2Ev.exit
  %15 = getelementptr inbounds nuw i8, ptr %0, i64 1544
  invoke void @_ZN6casadi13GenericSharedINS_12SharedObjectENS_20SharedObjectInternalEE10count_downEv(ptr noundef nonnull align 8 dereferenceable(8) %15)
          to label %_ZN6casadi13GenericSharedINS_12SharedObjectENS_20SharedObjectInternalEED2Ev.exit1 unwind label %16

16:                                               ; preds = %_ZN6casadi13GenericSharedINS_12SharedObjectENS_20SharedObjectInternalEED2Ev.exit
  %17 = landingpad { ptr, i32 }
          catch ptr null
  %18 = extractvalue { ptr, i32 } %17, 0
  tail call void @__clang_call_terminate(ptr %18) #33
  unreachable

_ZN6casadi13GenericSharedINS_12SharedObjectENS_20SharedObjectInternalEED2Ev.exit1: ; preds = %_ZN6casadi13GenericSharedINS_12SharedObjectENS_20SharedObjectInternalEED2Ev.exit
  tail call void @_ZN6casadi14OracleFunctionD2Ev(ptr noundef nonnull align 8 dereferenceable(1528) %0) #30
  ret void
}